target datalayout = "e-m:e-p270:32:32-p271:32:32-p272:64:64-i64:64-i128:128-f80:128-n8:16:32:64-S128"
target triple = "x86_64-pc-linux-gnu"

; Function Attrs: nounwind uwtable
define internal void @dc_left_32x32_c(ptr noundef %0, i64 noundef %1, ptr noundef %2, ptr noundef %3) #1 {
  %5 = alloca ptr, align 8
  %6 = alloca i64, align 8
  %7 = alloca ptr, align 8
  %8 = alloca ptr, align 8
  %9 = alloca ptr, align 8
  %10 = alloca ptr, align 8
  %11 = alloca i64, align 8
  %12 = alloca i32, align 4
  store ptr %0, ptr %5, align 8, !tbaa !10
  store i64 %1, ptr %6, align 8, !tbaa !12
  store ptr %2, ptr %7, align 8, !tbaa !10
  store ptr %3, ptr %8, align 8, !tbaa !10
  call void @llvm.lifetime.start.p0(i64 8, ptr %9) #9
  %13 = load ptr, ptr %5, align 8, !tbaa !10
  store ptr %13, ptr %9, align 8, !tbaa !14
  call void @llvm.lifetime.start.p0(i64 8, ptr %10) #9
  %14 = load ptr, ptr %7, align 8, !tbaa !10
  store ptr %14, ptr %10, align 8, !tbaa !14
  call void @llvm.lifetime.start.p0(i64 8, ptr %11) #9
  %15 = load ptr, ptr %10, align 8, !tbaa !14
  %16 = getelementptr inbounds i16, ptr %15, i64 0
  %17 = load i16, ptr %16, align 2, !tbaa !17
  %18 = zext i16 %17 to i32
  %19 = load ptr, ptr %10, align 8, !tbaa !14
  %20 = getelementptr inbounds i16, ptr %19, i64 1
  %21 = load i16, ptr %20, align 2, !tbaa !17
  %22 = zext i16 %21 to i32
  %23 = add nsw i32 %18, %22
  %24 = load ptr, ptr %10, align 8, !tbaa !14
  %25 = getelementptr inbounds i16, ptr %24, i64 2
  %26 = load i16, ptr %25, align 2, !tbaa !17
  %27 = zext i16 %26 to i32
  %28 = add nsw i32 %23, %27
  %29 = load ptr, ptr %10, align 8, !tbaa !14
  %30 = getelementptr inbounds i16, ptr %29, i64 3
  %31 = load i16, ptr %30, align 2, !tbaa !17
  %32 = zext i16 %31 to i32
  %33 = add nsw i32 %28, %32
  %34 = load ptr, ptr %10, align 8, !tbaa !14
  %35 = getelementptr inbounds i16, ptr %34, i64 4
  %36 = load i16, ptr %35, align 2, !tbaa !17
  %37 = zext i16 %36 to i32
  %38 = add nsw i32 %33, %37
  %39 = load ptr, ptr %10, align 8, !tbaa !14
  %40 = getelementptr inbounds i16, ptr %39, i64 5
  %41 = load i16, ptr %40, align 2, !tbaa !17
  %42 = zext i16 %41 to i32
  %43 = add nsw i32 %38, %42
  %44 = load ptr, ptr %10, align 8, !tbaa !14
  %45 = getelementptr inbounds i16, ptr %44, i64 6
  %46 = load i16, ptr %45, align 2, !tbaa !17
  %47 = zext i16 %46 to i32
  %48 = add nsw i32 %43, %47
  %49 = load ptr, ptr %10, align 8, !tbaa !14
  %50 = getelementptr inbounds i16, ptr %49, i64 7
  %51 = load i16, ptr %50, align 2, !tbaa !17
  %52 = zext i16 %51 to i32
  %53 = add nsw i32 %48, %52
  %54 = load ptr, ptr %10, align 8, !tbaa !14
  %55 = getelementptr inbounds i16, ptr %54, i64 8
  %56 = load i16, ptr %55, align 2, !tbaa !17
  %57 = zext i16 %56 to i32
  %58 = add nsw i32 %53, %57
  %59 = load ptr, ptr %10, align 8, !tbaa !14
  %60 = getelementptr inbounds i16, ptr %59, i64 9
  %61 = load i16, ptr %60, align 2, !tbaa !17
  %62 = zext i16 %61 to i32
  %63 = add nsw i32 %58, %62
  %64 = load ptr, ptr %10, align 8, !tbaa !14
  %65 = getelementptr inbounds i16, ptr %64, i64 10
  %66 = load i16, ptr %65, align 2, !tbaa !17
  %67 = zext i16 %66 to i32
  %68 = add nsw i32 %63, %67
  %69 = load ptr, ptr %10, align 8, !tbaa !14
  %70 = getelementptr inbounds i16, ptr %69, i64 11
  %71 = load i16, ptr %70, align 2, !tbaa !17
  %72 = zext i16 %71 to i32
  %73 = add nsw i32 %68, %72
  %74 = load ptr, ptr %10, align 8, !tbaa !14
  %75 = getelementptr inbounds i16, ptr %74, i64 12
  %76 = load i16, ptr %75, align 2, !tbaa !17
  %77 = zext i16 %76 to i32
  %78 = add nsw i32 %73, %77
  %79 = load ptr, ptr %10, align 8, !tbaa !14
  %80 = getelementptr inbounds i16, ptr %79, i64 13
  %81 = load i16, ptr %80, align 2, !tbaa !17
  %82 = zext i16 %81 to i32
  %83 = add nsw i32 %78, %82
  %84 = load ptr, ptr %10, align 8, !tbaa !14
  %85 = getelementptr inbounds i16, ptr %84, i64 14
  %86 = load i16, ptr %85, align 2, !tbaa !17
  %87 = zext i16 %86 to i32
  %88 = add nsw i32 %83, %87
  %89 = load ptr, ptr %10, align 8, !tbaa !14
  %90 = getelementptr inbounds i16, ptr %89, i64 15
  %91 = load i16, ptr %90, align 2, !tbaa !17
  %92 = zext i16 %91 to i32
  %93 = add nsw i32 %88, %92
  %94 = load ptr, ptr %10, align 8, !tbaa !14
  %95 = getelementptr inbounds i16, ptr %94, i64 16
  %96 = load i16, ptr %95, align 2, !tbaa !17
  %97 = zext i16 %96 to i32
  %98 = add nsw i32 %93, %97
  %99 = load ptr, ptr %10, align 8, !tbaa !14
  %100 = getelementptr inbounds i16, ptr %99, i64 17
  %101 = load i16, ptr %100, align 2, !tbaa !17
  %102 = zext i16 %101 to i32
  %103 = add nsw i32 %98, %102
  %104 = load ptr, ptr %10, align 8, !tbaa !14
  %105 = getelementptr inbounds i16, ptr %104, i64 18
  %106 = load i16, ptr %105, align 2, !tbaa !17
  %107 = zext i16 %106 to i32
  %108 = add nsw i32 %103, %107
  %109 = load ptr, ptr %10, align 8, !tbaa !14
  %110 = getelementptr inbounds i16, ptr %109, i64 19
  %111 = load i16, ptr %110, align 2, !tbaa !17
  %112 = zext i16 %111 to i32
  %113 = add nsw i32 %108, %112
  %114 = load ptr, ptr %10, align 8, !tbaa !14
  %115 = getelementptr inbounds i16, ptr %114, i64 20
  %116 = load i16, ptr %115, align 2, !tbaa !17
  %117 = zext i16 %116 to i32
  %118 = add nsw i32 %113, %117
  %119 = load ptr, ptr %10, align 8, !tbaa !14
  %120 = getelementptr inbounds i16, ptr %119, i64 21
  %121 = load i16, ptr %120, align 2, !tbaa !17
  %122 = zext i16 %121 to i32
  %123 = add nsw i32 %118, %122
  %124 = load ptr, ptr %10, align 8, !tbaa !14
  %125 = getelementptr inbounds i16, ptr %124, i64 22
  %126 = load i16, ptr %125, align 2, !tbaa !17
  %127 = zext i16 %126 to i32
  %128 = add nsw i32 %123, %127
  %129 = load ptr, ptr %10, align 8, !tbaa !14
  %130 = getelementptr inbounds i16, ptr %129, i64 23
  %131 = load i16, ptr %130, align 2, !tbaa !17
  %132 = zext i16 %131 to i32
  %133 = add nsw i32 %128, %132
  %134 = load ptr, ptr %10, align 8, !tbaa !14
  %135 = getelementptr inbounds i16, ptr %134, i64 24
  %136 = load i16, ptr %135, align 2, !tbaa !17
  %137 = zext i16 %136 to i32
  %138 = add nsw i32 %133, %137
  %139 = load ptr, ptr %10, align 8, !tbaa !14
  %140 = getelementptr inbounds i16, ptr %139, i64 25
  %141 = load i16, ptr %140, align 2, !tbaa !17
  %142 = zext i16 %141 to i32
  %143 = add nsw i32 %138, %142
  %144 = load ptr, ptr %10, align 8, !tbaa !14
  %145 = getelementptr inbounds i16, ptr %144, i64 26
  %146 = load i16, ptr %145, align 2, !tbaa !17
  %147 = zext i16 %146 to i32
  %148 = add nsw i32 %143, %147
  %149 = load ptr, ptr %10, align 8, !tbaa !14
  %150 = getelementptr inbounds i16, ptr %149, i64 27
  %151 = load i16, ptr %150, align 2, !tbaa !17
  %152 = zext i16 %151 to i32
  %153 = add nsw i32 %148, %152
  %154 = load ptr, ptr %10, align 8, !tbaa !14
  %155 = getelementptr inbounds i16, ptr %154, i64 28
  %156 = load i16, ptr %155, align 2, !tbaa !17
  %157 = zext i16 %156 to i32
  %158 = add nsw i32 %153, %157
  %159 = load ptr, ptr %10, align 8, !tbaa !14
  %160 = getelementptr inbounds i16, ptr %159, i64 29
  %161 = load i16, ptr %160, align 2, !tbaa !17
  %162 = zext i16 %161 to i32
  %163 = add nsw i32 %158, %162
  %164 = load ptr, ptr %10, align 8, !tbaa !14
  %165 = getelementptr inbounds i16, ptr %164, i64 30
  %166 = load i16, ptr %165, align 2, !tbaa !17
  %167 = zext i16 %166 to i32
  %168 = add nsw i32 %163, %167
  %169 = load ptr, ptr %10, align 8, !tbaa !14
  %170 = getelementptr inbounds i16, ptr %169, i64 31
  %171 = load i16, ptr %170, align 2, !tbaa !17
  %172 = zext i16 %171 to i32
  %173 = add nsw i32 %168, %172
  %174 = add nsw i32 %173, 16
  %175 = ashr i32 %174, 5
  %176 = sext i32 %175 to i64
  %177 = mul i64 %176, 281479271743489
  store i64 %177, ptr %11, align 8, !tbaa !12
  call void @llvm.lifetime.start.p0(i64 4, ptr %12) #9
  %178 = load i64, ptr %6, align 8, !tbaa !12
  %179 = udiv i64 %178, 2
  store i64 %179, ptr %6, align 8, !tbaa !12
  store i32 0, ptr %12, align 4, !tbaa !19
  br label %180

180:                                              ; preds = %211, %4
  %181 = load i32, ptr %12, align 4, !tbaa !19
  %182 = icmp slt i32 %181, 32
  br i1 %182, label %183, label %214

183:                                              ; preds = %180
  %184 = load i64, ptr %11, align 8, !tbaa !12
  %185 = load ptr, ptr %9, align 8, !tbaa !14
  %186 = getelementptr inbounds i16, ptr %185, i64 0
  store i64 %184, ptr %186, align 8, !tbaa !16
  %187 = load i64, ptr %11, align 8, !tbaa !12
  %188 = load ptr, ptr %9, align 8, !tbaa !14
  %189 = getelementptr inbounds i16, ptr %188, i64 4
  store i64 %187, ptr %189, align 8, !tbaa !16
  %190 = load i64, ptr %11, align 8, !tbaa !12
  %191 = load ptr, ptr %9, align 8, !tbaa !14
  %192 = getelementptr inbounds i16, ptr %191, i64 8
  store i64 %190, ptr %192, align 8, !tbaa !16
  %193 = load i64, ptr %11, align 8, !tbaa !12
  %194 = load ptr, ptr %9, align 8, !tbaa !14
  %195 = getelementptr inbounds i16, ptr %194, i64 12
  store i64 %193, ptr %195, align 8, !tbaa !16
  %196 = load i64, ptr %11, align 8, !tbaa !12
  %197 = load ptr, ptr %9, align 8, !tbaa !14
  %198 = getelementptr inbounds i16, ptr %197, i64 16
  store i64 %196, ptr %198, align 8, !tbaa !16
  %199 = load i64, ptr %11, align 8, !tbaa !12
  %200 = load ptr, ptr %9, align 8, !tbaa !14
  %201 = getelementptr inbounds i16, ptr %200, i64 20
  store i64 %199, ptr %201, align 8, !tbaa !16
  %202 = load i64, ptr %11, align 8, !tbaa !12
  %203 = load ptr, ptr %9, align 8, !tbaa !14
  %204 = getelementptr inbounds i16, ptr %203, i64 24
  store i64 %202, ptr %204, align 8, !tbaa !16
  %205 = load i64, ptr %11, align 8, !tbaa !12
  %206 = load ptr, ptr %9, align 8, !tbaa !14
  %207 = getelementptr inbounds i16, ptr %206, i64 28
  store i64 %205, ptr %207, align 8, !tbaa !16
  %208 = load i64, ptr %6, align 8, !tbaa !12
  %209 = load ptr, ptr %9, align 8, !tbaa !14
  %210 = getelementptr inbounds i16, ptr %209, i64 %208
  store ptr %210, ptr %9, align 8, !tbaa !14
  br label %211

211:                                              ; preds = %183
  %212 = load i32, ptr %12, align 4, !tbaa !19
  %213 = add nsw i32 %212, 1
  store i32 %213, ptr %12, align 4, !tbaa !19
  br label %180, !llvm.loop !86

214:                                              ; preds = %180
  call void @llvm.lifetime.end.p0(i64 4, ptr %12) #9
  call void @llvm.lifetime.end.p0(i64 8, ptr %11) #9
  call void @llvm.lifetime.end.p0(i64 8, ptr %10) #9
  call void @llvm.lifetime.end.p0(i64 8, ptr %9) #9
  ret void
}