; Function Attrs: nofree norecurse nosync nounwind memory(argmem: readwrite) uwtable
define internal void @dc_left_32x32_c(ptr noundef writeonly captures(none) %0, i64 noundef %1, ptr noundef readonly captures(none) %2, ptr readnone captures(none) %3) #2 {
  %5 = load i16, ptr %2, align 2, !tbaa !9
  %6 = zext i16 %5 to i64
  %7 = getelementptr inbounds nuw i8, ptr %2, i64 2
  %8 = load i16, ptr %7, align 2, !tbaa !9
  %9 = zext i16 %8 to i64
  %10 = getelementptr inbounds nuw i8, ptr %2, i64 4
  %11 = load i16, ptr %10, align 2, !tbaa !9
  %12 = zext i16 %11 to i64
  %13 = getelementptr inbounds nuw i8, ptr %2, i64 6
  %14 = load i16, ptr %13, align 2, !tbaa !9
  %15 = zext i16 %14 to i64
  %16 = getelementptr inbounds nuw i8, ptr %2, i64 8
  %17 = load i16, ptr %16, align 2, !tbaa !9
  %18 = zext i16 %17 to i64
  %19 = getelementptr inbounds nuw i8, ptr %2, i64 10
  %20 = load i16, ptr %19, align 2, !tbaa !9
  %21 = zext i16 %20 to i64
  %22 = getelementptr inbounds nuw i8, ptr %2, i64 12
  %23 = load i16, ptr %22, align 2, !tbaa !9
  %24 = zext i16 %23 to i64
  %25 = getelementptr inbounds nuw i8, ptr %2, i64 14
  %26 = load i16, ptr %25, align 2, !tbaa !9
  %27 = zext i16 %26 to i64
  %28 = getelementptr inbounds nuw i8, ptr %2, i64 16
  %29 = load i16, ptr %28, align 2, !tbaa !9
  %30 = zext i16 %29 to i64
  %31 = getelementptr inbounds nuw i8, ptr %2, i64 18
  %32 = load i16, ptr %31, align 2, !tbaa !9
  %33 = zext i16 %32 to i64
  %34 = getelementptr inbounds nuw i8, ptr %2, i64 20
  %35 = load i16, ptr %34, align 2, !tbaa !9
  %36 = zext i16 %35 to i64
  %37 = getelementptr inbounds nuw i8, ptr %2, i64 22
  %38 = load i16, ptr %37, align 2, !tbaa !9
  %39 = zext i16 %38 to i64
  %40 = getelementptr inbounds nuw i8, ptr %2, i64 24
  %41 = load i16, ptr %40, align 2, !tbaa !9
  %42 = zext i16 %41 to i64
  %43 = getelementptr inbounds nuw i8, ptr %2, i64 26
  %44 = load i16, ptr %43, align 2, !tbaa !9
  %45 = zext i16 %44 to i64
  %46 = getelementptr inbounds nuw i8, ptr %2, i64 28
  %47 = load i16, ptr %46, align 2, !tbaa !9
  %48 = zext i16 %47 to i64
  %49 = getelementptr inbounds nuw i8, ptr %2, i64 30
  %50 = load i16, ptr %49, align 2, !tbaa !9
  %51 = zext i16 %50 to i64
  %52 = getelementptr inbounds nuw i8, ptr %2, i64 32
  %53 = load i16, ptr %52, align 2, !tbaa !9
  %54 = zext i16 %53 to i64
  %55 = getelementptr inbounds nuw i8, ptr %2, i64 34
  %56 = load i16, ptr %55, align 2, !tbaa !9
  %57 = zext i16 %56 to i64
  %58 = getelementptr inbounds nuw i8, ptr %2, i64 36
  %59 = load i16, ptr %58, align 2, !tbaa !9
  %60 = zext i16 %59 to i64
  %61 = getelementptr inbounds nuw i8, ptr %2, i64 38
  %62 = load i16, ptr %61, align 2, !tbaa !9
  %63 = zext i16 %62 to i64
  %64 = getelementptr inbounds nuw i8, ptr %2, i64 40
  %65 = load i16, ptr %64, align 2, !tbaa !9
  %66 = zext i16 %65 to i64
  %67 = getelementptr inbounds nuw i8, ptr %2, i64 42
  %68 = load i16, ptr %67, align 2, !tbaa !9
  %69 = zext i16 %68 to i64
  %70 = getelementptr inbounds nuw i8, ptr %2, i64 44
  %71 = load i16, ptr %70, align 2, !tbaa !9
  %72 = zext i16 %71 to i64
  %73 = getelementptr inbounds nuw i8, ptr %2, i64 46
  %74 = load i16, ptr %73, align 2, !tbaa !9
  %75 = zext i16 %74 to i64
  %76 = getelementptr inbounds nuw i8, ptr %2, i64 48
  %77 = load i16, ptr %76, align 2, !tbaa !9
  %78 = zext i16 %77 to i64
  %79 = getelementptr inbounds nuw i8, ptr %2, i64 50
  %80 = load i16, ptr %79, align 2, !tbaa !9
  %81 = zext i16 %80 to i64
  %82 = getelementptr inbounds nuw i8, ptr %2, i64 52
  %83 = load i16, ptr %82, align 2, !tbaa !9
  %84 = zext i16 %83 to i64
  %85 = getelementptr inbounds nuw i8, ptr %2, i64 54
  %86 = load i16, ptr %85, align 2, !tbaa !9
  %87 = zext i16 %86 to i64
  %88 = getelementptr inbounds nuw i8, ptr %2, i64 56
  %89 = load i16, ptr %88, align 2, !tbaa !9
  %90 = zext i16 %89 to i64
  %91 = getelementptr inbounds nuw i8, ptr %2, i64 58
  %92 = load i16, ptr %91, align 2, !tbaa !9
  %93 = zext i16 %92 to i64
  %94 = getelementptr inbounds nuw i8, ptr %2, i64 60
  %95 = load i16, ptr %94, align 2, !tbaa !9
  %96 = zext i16 %95 to i64
  %97 = getelementptr inbounds nuw i8, ptr %2, i64 62
  %98 = load i16, ptr %97, align 2, !tbaa !9
  %99 = zext i16 %98 to i64
  %100 = add nuw nsw i64 %6, 16
  %101 = add nuw nsw i64 %100, %9
  %102 = add nuw nsw i64 %101, %12
  %103 = add nuw nsw i64 %102, %15
  %104 = add nuw nsw i64 %103, %18
  %105 = add nuw nsw i64 %104, %21
  %106 = add nuw nsw i64 %105, %24
  %107 = add nuw nsw i64 %106, %27
  %108 = add nuw nsw i64 %107, %30
  %109 = add nuw nsw i64 %108, %33
  %110 = add nuw nsw i64 %109, %36
  %111 = add nuw nsw i64 %110, %39
  %112 = add nuw nsw i64 %111, %42
  %113 = add nuw nsw i64 %112, %45
  %114 = add nuw nsw i64 %113, %48
  %115 = add nuw nsw i64 %114, %51
  %116 = add nuw nsw i64 %115, %54
  %117 = add nuw nsw i64 %116, %57
  %118 = add nuw nsw i64 %117, %60
  %119 = add nuw nsw i64 %118, %63
  %120 = add nuw nsw i64 %119, %66
  %121 = add nuw nsw i64 %120, %69
  %122 = add nuw nsw i64 %121, %72
  %123 = add nuw nsw i64 %122, %75
  %124 = add nuw nsw i64 %123, %78
  %125 = add nuw nsw i64 %124, %81
  %126 = add nuw nsw i64 %125, %84
  %127 = add nuw nsw i64 %126, %87
  %128 = add nuw nsw i64 %127, %90
  %129 = add nuw nsw i64 %128, %93
  %130 = add nuw nsw i64 %129, %96
  %131 = add nuw nsw i64 %130, %99
  %132 = lshr i64 %131, 5
  %133 = mul nuw i64 %132, 281479271743489
  %134 = lshr i64 %1, 1
  br label %135

135:                                              ; preds = %4, %135
  %.056 = phi i32 [ 0, %4 ], [ %144, %135 ]
  %.05455 = phi ptr [ %0, %4 ], [ %143, %135 ]
  store i64 %133, ptr %.05455, align 8, !tbaa !8
  %136 = getelementptr inbounds nuw i8, ptr %.05455, i64 8
  store i64 %133, ptr %136, align 8, !tbaa !8
  %137 = getelementptr inbounds nuw i8, ptr %.05455, i64 16
  store i64 %133, ptr %137, align 8, !tbaa !8
  %138 = getelementptr inbounds nuw i8, ptr %.05455, i64 24
  store i64 %133, ptr %138, align 8, !tbaa !8
  %139 = getelementptr inbounds nuw i8, ptr %.05455, i64 32
  store i64 %133, ptr %139, align 8, !tbaa !8
  %140 = getelementptr inbounds nuw i8, ptr %.05455, i64 40
  store i64 %133, ptr %140, align 8, !tbaa !8
  %141 = getelementptr inbounds nuw i8, ptr %.05455, i64 48
  store i64 %133, ptr %141, align 8, !tbaa !8
  %142 = getelementptr inbounds nuw i8, ptr %.05455, i64 56
  store i64 %133, ptr %142, align 8, !tbaa !8
  %143 = getelementptr inbounds nuw i16, ptr %.05455, i64 %134
  %144 = add nuw nsw i32 %.056, 1
  %exitcond.not = icmp eq i32 %144, 32
  br i1 %exitcond.not, label %145, label %135, !llvm.loop !77

145:                                              ; preds = %135
  ret void
}